target datalayout = "e-m:e-p270:32:32-p271:32:32-p272:64:64-i64:64-i128:128-f80:128-n8:16:32:64-S128"
target triple = "x86_64-pc-linux-gnu"

%"struct.c4::yml::Callbacks" = type { ptr, ptr, ptr, ptr }
%"struct.c4::basic_substring.0" = type { ptr, i64 }
%"struct.c4::basic_substring" = type { ptr, i64 }
%"struct.c4::yml::Location" = type { %"struct.c4::yml::LineCol", %"struct.c4::basic_substring.0" }
%"struct.c4::yml::LineCol" = type { i64, i64, i64 }
%"class.c4::yml::Parser" = type { %"struct.c4::yml::ParserOptions", %"struct.c4::basic_substring.0", %"struct.c4::basic_substring", i64, ptr, %"class.c4::yml::detail::stack.5", ptr, i64, i64, %"struct.c4::basic_substring.0", %"struct.c4::basic_substring.0", i64, %"struct.c4::basic_substring.0", i8, i64, %"struct.c4::basic_substring.0", i64, %"struct.c4::basic_substring.0", %"struct.c4::basic_substring", ptr, i64, i64, %"struct.c4::basic_substring.0" }
%"struct.c4::yml::ParserOptions" = type { i32 }
%"class.c4::yml::detail::stack.5" = type { [16 x %"struct.c4::yml::Parser::State"], ptr, i64, i64, %"struct.c4::yml::Callbacks" }
%"struct.c4::yml::Parser::State" = type { i32, i64, i64, %"struct.c4::basic_substring.0", i64, %"struct.c4::yml::Location", %"struct.c4::yml::Parser::LineContents", i64 }
%"struct.c4::yml::Parser::LineContents" = type { %"struct.c4::basic_substring.0", %"struct.c4::basic_substring.0", %"struct.c4::basic_substring.0", i64 }

@.str = private unnamed_addr constant [128 x i8] c"generated/home/dtcxzyw/WorkSpace/Projects/compilers/llvm-opt-benchmark/bench/jsonnet/jsonnet/third_party/rapidyaml/ryml_all.hpp\00", align 1
@__const._ZN2c43yml6Parser13_stop_seqimapEv.msg = private unnamed_addr constant [34 x i8] c"check failed: (has_all(RSEQIMAP))\00", align 16

; Function Attrs: mustprogress nounwind uwtable
define linkonce_odr void @_ZN2c415basic_substringIKcEC2EPS1_m(ptr noundef nonnull align 8 dereferenceable(16) %0, ptr noundef %1, i64 noundef %2) unnamed_addr #0 comdat align 2 {
  %4 = alloca ptr, align 8
  %5 = alloca ptr, align 8
  %6 = alloca i64, align 8
  store ptr %0, ptr %4, align 8, !tbaa !45
  store ptr %1, ptr %5, align 8, !tbaa !20
  store i64 %2, ptr %6, align 8, !tbaa !15
  %7 = load ptr, ptr %4, align 8
  %8 = getelementptr inbounds nuw %"struct.c4::basic_substring.0", ptr %7, i32 0, i32 0
  %9 = load ptr, ptr %5, align 8, !tbaa !20
  store ptr %9, ptr %8, align 8, !tbaa !37
  %10 = getelementptr inbounds nuw %"struct.c4::basic_substring.0", ptr %7, i32 0, i32 1
  %11 = load i64, ptr %6, align 8, !tbaa !15
  store i64 %11, ptr %10, align 8, !tbaa !39
  ret void
}

; Function Attrs: inlinehint mustprogress uwtable
define linkonce_odr { ptr, i64 } @_ZN2c410to_csubstrEPKc(ptr noundef %0) #19 comdat {
  %2 = alloca %"struct.c4::basic_substring.0", align 8
  %3 = alloca ptr, align 8
  store ptr %0, ptr %3, align 8, !tbaa !20
  %4 = load ptr, ptr %3, align 8, !tbaa !20
  %5 = load ptr, ptr %3, align 8, !tbaa !20
  %6 = icmp ne ptr %5, null
  br i1 %6, label %7, label %10

7:                                                ; preds = %1
  %8 = load ptr, ptr %3, align 8, !tbaa !20
  %9 = call i64 @strlen(ptr noundef %8) #26
  br label %11

10:                                               ; preds = %1
  br label %11

11:                                               ; preds = %10, %7
  %12 = phi i64 [ %9, %7 ], [ 0, %10 ]
  call void @_ZN2c415basic_substringIKcEC2EPS1_m(ptr noundef nonnull align 8 dereferenceable(16) %2, ptr noundef %4, i64 noundef %12)
  %13 = load { ptr, i64 }, ptr %2, align 8
  ret { ptr, i64 } %13
}

; Function Attrs: mustprogress nounwind uwtable
define linkonce_odr void @_ZN2c43yml7LineColC2Emmm(ptr noundef nonnull align 8 dereferenceable(24) %0, i64 noundef %1, i64 noundef %2, i64 noundef %3) unnamed_addr #0 comdat align 2 {
  %5 = alloca ptr, align 8
  %6 = alloca i64, align 8
  %7 = alloca i64, align 8
  %8 = alloca i64, align 8
  store ptr %0, ptr %5, align 8, !tbaa !355
  store i64 %1, ptr %6, align 8, !tbaa !15
  store i64 %2, ptr %7, align 8, !tbaa !15
  store i64 %3, ptr %8, align 8, !tbaa !15
  %9 = load ptr, ptr %5, align 8
  %10 = getelementptr inbounds nuw %"struct.c4::yml::LineCol", ptr %9, i32 0, i32 0
  %11 = load i64, ptr %6, align 8, !tbaa !15
  store i64 %11, ptr %10, align 8, !tbaa !80
  %12 = getelementptr inbounds nuw %"struct.c4::yml::LineCol", ptr %9, i32 0, i32 1
  %13 = load i64, ptr %7, align 8, !tbaa !15
  store i64 %13, ptr %12, align 8, !tbaa !78
  %14 = getelementptr inbounds nuw %"struct.c4::yml::LineCol", ptr %9, i32 0, i32 2
  %15 = load i64, ptr %8, align 8, !tbaa !15
  store i64 %15, ptr %14, align 8, !tbaa !79
  ret void
}

; Function Attrs: mustprogress uwtable
define linkonce_odr void @_ZN2c43yml8LocationC2EPKcmmm(ptr noundef nonnull align 8 dereferenceable(40) %0, ptr noundef %1, i64 noundef %2, i64 noundef %3, i64 noundef %4) unnamed_addr #1 comdat align 2 {
  %6 = alloca ptr, align 8
  %7 = alloca ptr, align 8
  %8 = alloca i64, align 8
  %9 = alloca i64, align 8
  %10 = alloca i64, align 8
  store ptr %0, ptr %6, align 8, !tbaa !81
  store ptr %1, ptr %7, align 8, !tbaa !20
  store i64 %2, ptr %8, align 8, !tbaa !15
  store i64 %3, ptr %9, align 8, !tbaa !15
  store i64 %4, ptr %10, align 8, !tbaa !15
  %11 = load ptr, ptr %6, align 8
  %12 = load i64, ptr %8, align 8, !tbaa !15
  %13 = load i64, ptr %9, align 8, !tbaa !15
  %14 = load i64, ptr %10, align 8, !tbaa !15
  call void @_ZN2c43yml7LineColC2Emmm(ptr noundef nonnull align 8 dereferenceable(24) %11, i64 noundef %12, i64 noundef %13, i64 noundef %14)
  %15 = getelementptr inbounds nuw %"struct.c4::yml::Location", ptr %11, i32 0, i32 1
  %16 = load ptr, ptr %7, align 8, !tbaa !20
  %17 = call { ptr, i64 } @_ZN2c410to_csubstrEPKc(ptr noundef %16)
  %18 = getelementptr inbounds nuw { ptr, i64 }, ptr %15, i32 0, i32 0
  %19 = extractvalue { ptr, i64 } %17, 0
  store ptr %19, ptr %18, align 8
  %20 = getelementptr inbounds nuw { ptr, i64 }, ptr %15, i32 0, i32 1
  %21 = extractvalue { ptr, i64 } %17, 1
  store i64 %21, ptr %20, align 8
  ret void
}

; Function Attrs: inlinehint mustprogress nounwind uwtable
define linkonce_odr noundef zeroext i1 @_ZNK2c43yml6Parser7has_allEi(ptr noundef nonnull align 8 dereferenceable(2736) %0, i32 noundef %1) #3 comdat align 2 {
  %3 = alloca ptr, align 8
  %4 = alloca i32, align 4
  store ptr %0, ptr %3, align 8, !tbaa !218
  store i32 %1, ptr %4, align 4, !tbaa !32
  %5 = load ptr, ptr %3, align 8
  %6 = getelementptr inbounds nuw %"class.c4::yml::Parser", ptr %5, i32 0, i32 6
  %7 = load ptr, ptr %6, align 8, !tbaa !234
  %8 = getelementptr inbounds nuw %"struct.c4::yml::Parser::State", ptr %7, i32 0, i32 0
  %9 = load i32, ptr %8, align 8, !tbaa !247
  %10 = load i32, ptr %4, align 4, !tbaa !32
  %11 = and i32 %9, %10
  %12 = load i32, ptr %4, align 4, !tbaa !32
  %13 = icmp eq i32 %11, %12
  ret i1 %13
}

; Function Attrs: mustprogress uwtable
define void @_ZN2c43yml6Parser13_stop_seqimapEv(ptr noundef nonnull align 8 dereferenceable(2736) %0) #1 align 2 {
  %2 = alloca ptr, align 8
  %3 = alloca [34 x i8], align 16
  %4 = alloca %"struct.c4::yml::Location", align 8
  store ptr %0, ptr %2, align 8, !tbaa !218
  %5 = load ptr, ptr %2, align 8
  br label %6

6:                                                ; preds = %1
  %7 = call noundef zeroext i1 @_ZNK2c43yml6Parser7has_allEi(ptr noundef nonnull align 8 dereferenceable(2736) %5, i32 noundef 8192)
  br i1 %7, label %18, label %8

8:                                                ; preds = %6
  call void @llvm.lifetime.start.p0(i64 34, ptr %3) #25
  call void @llvm.memcpy.p0.p0.i64(ptr align 16 %3, ptr align 16 @__const._ZN2c43yml6Parser13_stop_seqimapEv.msg, i64 34, i1 false)
  %9 = getelementptr inbounds nuw %"class.c4::yml::Parser", ptr %5, i32 0, i32 5
  %10 = getelementptr inbounds nuw %"class.c4::yml::detail::stack.5", ptr %9, i32 0, i32 4
  %11 = getelementptr inbounds nuw %"struct.c4::yml::Callbacks", ptr %10, i32 0, i32 3
  %12 = load ptr, ptr %11, align 8, !tbaa !254
  %13 = getelementptr inbounds [34 x i8], ptr %3, i64 0, i64 0
  call void @_ZN2c43yml8LocationC2EPKcmmm(ptr noundef nonnull align 8 dereferenceable(40) %4, ptr noundef @.str, i64 noundef 0, i64 noundef 30958, i64 noundef 0)
  %14 = getelementptr inbounds nuw %"class.c4::yml::Parser", ptr %5, i32 0, i32 5
  %15 = getelementptr inbounds nuw %"class.c4::yml::detail::stack.5", ptr %14, i32 0, i32 4
  %16 = getelementptr inbounds nuw %"struct.c4::yml::Callbacks", ptr %15, i32 0, i32 0
  %17 = load ptr, ptr %16, align 8, !tbaa !227
  call void %12(ptr noundef %13, i64 noundef 34, ptr noundef byval(%"struct.c4::yml::Location") align 8 %4, ptr noundef %17)
  call void @llvm.lifetime.end.p0(i64 34, ptr %3) #25
  br label %18

18:                                               ; preds = %8, %6
  br label %19

19:                                               ; preds = %18
  ret void
}