; Function Attrs: mustprogress uwtable
define void @_ZN2c43yml6Parser13_stop_seqimapEv(ptr noundef nonnull readonly align 8 captures(none) dereferenceable(2736) %0) local_unnamed_addr #1 align 2 {
  %2 = alloca [34 x i8], align 16
  %3 = alloca %"struct.c4::yml::Location", align 8
  %4 = getelementptr inbounds nuw i8, ptr %0, i64 2544
  %5 = load ptr, ptr %4, align 8, !tbaa !260
  %6 = load i32, ptr %5, align 8, !tbaa !253
  %7 = and i32 %6, 8192
  %.not = icmp eq i32 %7, 0
  br i1 %.not, label %8, label %17

8:                                                ; preds = %1
  call void @llvm.lifetime.start.p0(i64 34, ptr nonnull %2) #39
  call void @llvm.memcpy.p0.p0.i64(ptr noundef nonnull align 16 dereferenceable(34) %2, ptr noundef nonnull align 16 dereferenceable(34) @__const._ZN2c43yml6Parser13_stop_seqimapEv.msg, i64 34, i1 false)
  %9 = getelementptr inbounds nuw i8, ptr %0, i64 2512
  %10 = getelementptr inbounds nuw i8, ptr %0, i64 2536
  %11 = load ptr, ptr %10, align 8, !tbaa !273
  store i64 0, ptr %3, align 8, !tbaa !103
  %12 = getelementptr inbounds nuw i8, ptr %3, i64 8
  store i64 30958, ptr %12, align 8, !tbaa !104
  %13 = getelementptr inbounds nuw i8, ptr %3, i64 16
  store i64 0, ptr %13, align 8, !tbaa !58
  %14 = getelementptr inbounds nuw i8, ptr %3, i64 24
  store ptr @.str, ptr %14, align 8
  %15 = getelementptr inbounds nuw i8, ptr %3, i64 32
  store i64 127, ptr %15, align 8
  %16 = load ptr, ptr %9, align 8, !tbaa !243
  call void %11(ptr noundef nonnull %2, i64 noundef 34, ptr noundef nonnull byval(%"struct.c4::yml::Location") align 8 %3, ptr noundef %16)
  call void @llvm.lifetime.end.p0(i64 34, ptr nonnull %2) #39
  br label %17

17:                                               ; preds = %1, %8
  ret void
}